ARM GAS  /tmp/cc2TGFty.s 			page 1


   1              		.cpu cortex-m4
   2              		.eabi_attribute 27, 1
   3              		.eabi_attribute 28, 1
   4              		.eabi_attribute 20, 1
   5              		.eabi_attribute 21, 1
   6              		.eabi_attribute 23, 3
   7              		.eabi_attribute 24, 1
   8              		.eabi_attribute 25, 1
   9              		.eabi_attribute 26, 1
  10              		.eabi_attribute 30, 1
  11              		.eabi_attribute 34, 1
  12              		.eabi_attribute 18, 4
  13              		.file	"main.c"
  14              		.text
  15              	.Ltext0:
  16              		.cfi_sections	.debug_frame
  17              		.section	.text.SysClockConfig_42Mhz,"ax",%progbits
  18              		.align	1
  19              		.global	SysClockConfig_42Mhz
  20              		.arch armv7e-m
  21              		.syntax unified
  22              		.thumb
  23              		.thumb_func
  24              		.fpu fpv4-sp-d16
  26              	SysClockConfig_42Mhz:
  27              	.LFB1:
  28              		.file 1 "src/main.c"
   1:src/main.c    **** #include "stm32f401ccu6.h"
   2:src/main.c    **** 
   3:src/main.c    **** #define PLLM            (25U)
   4:src/main.c    **** #define PLLN            (252U << 6)
   5:src/main.c    **** #define PLLP            (1U << 17)
   6:src/main.c    **** #define MODER_PIN_13    (1U << 26)
   7:src/main.c    **** #define TIM11_EN        (1U << 18)
   8:src/main.c    **** #define PSC_VALUE       41
   9:src/main.c    **** #define ARR_VALUE       0xFFFF
  10:src/main.c    **** #define SET_PIN_13      (1U << 13)
  11:src/main.c    **** #define RESET_PIN_13    (1U << 29)
  12:src/main.c    **** #define GPIOC_EN        (0x1U << 2)
  13:src/main.c    **** #define SysCoreClk      42000000UL
  14:src/main.c    **** 
  15:src/main.c    **** void SysClockConfig_42Mhz(void);
  16:src/main.c    **** void timerConfig(void);
  17:src/main.c    **** void GPIOconfig(void);
  18:src/main.c    **** void Delay_us(uint16_t);
  19:src/main.c    **** void Delay_ms(uint16_t);
  20:src/main.c    **** //void UART1_init(uint32_t);
  21:src/main.c    **** void UART1_Tx(uint8_t);
  22:src/main.c    **** 
  23:src/main.c    **** int main(void)
  24:src/main.c    **** {
  25:src/main.c    ****     SysClockConfig_42Mhz();
  26:src/main.c    ****     GPIOconfig();
  27:src/main.c    ****     timerConfig();
  28:src/main.c    ****     
  29:src/main.c    ****     UART_Typedef UART1_config = {
  30:src/main.c    ****         .baudRate = 9600,       // baud rate
ARM GAS  /tmp/cc2TGFty.s 			page 2


  31:src/main.c    ****         .peripheralClock = SysCoreClk,  // peripheral clock
  32:src/main.c    ****         .mode = UART_TX,        // UART communication mode
  33:src/main.c    ****         .ParityEnable = 0,      // enable parity
  34:src/main.c    ****         .Parity = 0     // even parity
  35:src/main.c    ****     };
  36:src/main.c    **** 
  37:src/main.c    ****     UART_init(USART1_BASE_ADDR, &UART1_config);
  38:src/main.c    **** 
  39:src/main.c    **** 
  40:src/main.c    ****     while (1)
  41:src/main.c    ****     {
  42:src/main.c    ****         char* s = "Hello World :)\n\r";
  43:src/main.c    ****         while (*s)
  44:src/main.c    ****         {
  45:src/main.c    ****             UART_send(UART1, *s);
  46:src/main.c    ****             s++;
  47:src/main.c    ****         }
  48:src/main.c    ****         Delay_ms(1000);      // 1sec delay
  49:src/main.c    ****     }
  50:src/main.c    **** }
  51:src/main.c    **** 
  52:src/main.c    **** void SysClockConfig_42Mhz()
  53:src/main.c    **** {
  29              		.loc 1 53 1 view -0
  30              		.cfi_startproc
  31              		@ args = 0, pretend = 0, frame = 0
  32              		@ frame_needed = 0, uses_anonymous_args = 0
  33              		@ link register save eliminated.
  54:src/main.c    ****     RCC->CR |= HSE_ON;
  34              		.loc 1 54 5 view .LVU1
  35              		.loc 1 54 13 is_stmt 0 view .LVU2
  36 0000 1D4A     		ldr	r2, .L5
  37 0002 1368     		ldr	r3, [r2]
  38 0004 43F48033 		orr	r3, r3, #65536
  39 0008 1360     		str	r3, [r2]
  55:src/main.c    ****     while (!(RCC->CR & HSE_RDY));
  40              		.loc 1 55 5 is_stmt 1 view .LVU3
  41              	.L2:
  42              		.loc 1 55 33 discriminator 1 view .LVU4
  43              		.loc 1 55 11 discriminator 1 view .LVU5
  44              		.loc 1 55 17 is_stmt 0 discriminator 1 view .LVU6
  45 000a 1B4B     		ldr	r3, .L5
  46 000c 1B68     		ldr	r3, [r3]
  47              		.loc 1 55 11 discriminator 1 view .LVU7
  48 000e 13F4003F 		tst	r3, #131072
  49 0012 FAD0     		beq	.L2
  56:src/main.c    ****     
  57:src/main.c    ****     RCC->PLLCFGR |= PLLSRC_HSE;
  50              		.loc 1 57 5 is_stmt 1 view .LVU8
  51              		.loc 1 57 18 is_stmt 0 view .LVU9
  52 0014 184B     		ldr	r3, .L5
  53 0016 5A68     		ldr	r2, [r3, #4]
  54 0018 42F48002 		orr	r2, r2, #4194304
  55 001c 5A60     		str	r2, [r3, #4]
  58:src/main.c    **** 
  59:src/main.c    ****     RCC->APB1ENR |= PWR_EN;
  56              		.loc 1 59 5 is_stmt 1 view .LVU10
ARM GAS  /tmp/cc2TGFty.s 			page 3


  57              		.loc 1 59 18 is_stmt 0 view .LVU11
  58 001e 1A6C     		ldr	r2, [r3, #64]
  59 0020 42F08052 		orr	r2, r2, #268435456
  60 0024 1A64     		str	r2, [r3, #64]
  60:src/main.c    ****     PWR->CR |= VOS_SCALE_2_MODE;
  61              		.loc 1 60 5 is_stmt 1 view .LVU12
  62              		.loc 1 60 13 is_stmt 0 view .LVU13
  63 0026 1549     		ldr	r1, .L5+4
  64 0028 0A68     		ldr	r2, [r1]
  65 002a 42F40042 		orr	r2, r2, #32768
  66 002e 0A60     		str	r2, [r1]
  61:src/main.c    **** 
  62:src/main.c    ****     FLASH->ACR |= LATENCY_2WS | DCEN | PRFTEN | ICEN;
  67              		.loc 1 62 5 is_stmt 1 view .LVU14
  68              		.loc 1 62 16 is_stmt 0 view .LVU15
  69 0030 01F5E631 		add	r1, r1, #117760
  70 0034 0A68     		ldr	r2, [r1]
  71 0036 42F4E062 		orr	r2, r2, #1792
  72 003a 42F00202 		orr	r2, r2, #2
  73 003e 0A60     		str	r2, [r1]
  63:src/main.c    **** 
  64:src/main.c    ****     RCC->PLLCFGR |= PLLM | PLLN | PLLP;
  74              		.loc 1 64 5 is_stmt 1 view .LVU16
  75              		.loc 1 64 18 is_stmt 0 view .LVU17
  76 0040 5968     		ldr	r1, [r3, #4]
  77 0042 0F4A     		ldr	r2, .L5+8
  78 0044 0A43     		orrs	r2, r2, r1
  79 0046 5A60     		str	r2, [r3, #4]
  65:src/main.c    ****     RCC->CFGR |= AHB_PRE_DIV1 | APB1_PRE_DIV2 | APB2_PRE_DIV1;
  80              		.loc 1 65 5 is_stmt 1 view .LVU18
  81              		.loc 1 65 15 is_stmt 0 view .LVU19
  82 0048 9A68     		ldr	r2, [r3, #8]
  83 004a 9A60     		str	r2, [r3, #8]
  66:src/main.c    **** 
  67:src/main.c    ****     RCC->CR |= PLLON;
  84              		.loc 1 67 5 is_stmt 1 view .LVU20
  85              		.loc 1 67 13 is_stmt 0 view .LVU21
  86 004c 1A68     		ldr	r2, [r3]
  87 004e 42F08072 		orr	r2, r2, #16777216
  88 0052 1A60     		str	r2, [r3]
  68:src/main.c    ****     while (!(RCC->CR & PLLRDY));
  89              		.loc 1 68 5 is_stmt 1 view .LVU22
  90              	.L3:
  91              		.loc 1 68 32 discriminator 1 view .LVU23
  92              		.loc 1 68 11 discriminator 1 view .LVU24
  93              		.loc 1 68 17 is_stmt 0 discriminator 1 view .LVU25
  94 0054 084B     		ldr	r3, .L5
  95 0056 1B68     		ldr	r3, [r3]
  96              		.loc 1 68 11 discriminator 1 view .LVU26
  97 0058 13F0807F 		tst	r3, #16777216
  98 005c FAD0     		beq	.L3
  69:src/main.c    **** 
  70:src/main.c    ****     RCC->CFGR |= SW_PLL;
  99              		.loc 1 70 5 is_stmt 1 view .LVU27
 100              		.loc 1 70 15 is_stmt 0 view .LVU28
 101 005e 064A     		ldr	r2, .L5
 102 0060 9368     		ldr	r3, [r2, #8]
ARM GAS  /tmp/cc2TGFty.s 			page 4


 103 0062 43F00203 		orr	r3, r3, #2
 104 0066 9360     		str	r3, [r2, #8]
  71:src/main.c    ****     while ((RCC->CFGR & SWS) != SW_PLL_MASK);
 105              		.loc 1 71 5 is_stmt 1 view .LVU29
 106              	.L4:
 107              		.loc 1 71 45 discriminator 1 view .LVU30
 108              		.loc 1 71 11 discriminator 1 view .LVU31
 109              		.loc 1 71 16 is_stmt 0 discriminator 1 view .LVU32
 110 0068 034B     		ldr	r3, .L5
 111 006a 9B68     		ldr	r3, [r3, #8]
 112              		.loc 1 71 23 discriminator 1 view .LVU33
 113 006c 03F00C03 		and	r3, r3, #12
 114              		.loc 1 71 11 discriminator 1 view .LVU34
 115 0070 082B     		cmp	r3, #8
 116 0072 F9D1     		bne	.L4
  72:src/main.c    **** }
 117              		.loc 1 72 1 view .LVU35
 118 0074 7047     		bx	lr
 119              	.L6:
 120 0076 00BF     		.align	2
 121              	.L5:
 122 0078 00380240 		.word	1073887232
 123 007c 00700040 		.word	1073770496
 124 0080 193F0200 		.word	147225
 125              		.cfi_endproc
 126              	.LFE1:
 128              		.section	.text.GPIOconfig,"ax",%progbits
 129              		.align	1
 130              		.global	GPIOconfig
 131              		.syntax unified
 132              		.thumb
 133              		.thumb_func
 134              		.fpu fpv4-sp-d16
 136              	GPIOconfig:
 137              	.LFB2:
  73:src/main.c    **** 
  74:src/main.c    **** void GPIOconfig()
  75:src/main.c    **** {
 138              		.loc 1 75 1 is_stmt 1 view -0
 139              		.cfi_startproc
 140              		@ args = 0, pretend = 0, frame = 0
 141              		@ frame_needed = 0, uses_anonymous_args = 0
 142              		@ link register save eliminated.
  76:src/main.c    ****     RCC->AHB1ENR |= 1;      // enable gpio port A clock
 143              		.loc 1 76 5 view .LVU37
 144              		.loc 1 76 18 is_stmt 0 view .LVU38
 145 0000 084A     		ldr	r2, .L8
 146 0002 136B     		ldr	r3, [r2, #48]
 147 0004 43F00103 		orr	r3, r3, #1
 148 0008 1363     		str	r3, [r2, #48]
  77:src/main.c    ****     GPIOA->MODER |= (0xA << 18);    
 149              		.loc 1 77 5 is_stmt 1 view .LVU39
 150              		.loc 1 77 18 is_stmt 0 view .LVU40
 151 000a 074B     		ldr	r3, .L8+4
 152 000c 1A68     		ldr	r2, [r3]
 153 000e 42F42012 		orr	r2, r2, #2621440
 154 0012 1A60     		str	r2, [r3]
ARM GAS  /tmp/cc2TGFty.s 			page 5


  78:src/main.c    ****     GPIOA->OSPEEDR |= (0xA << 18);
 155              		.loc 1 78 5 is_stmt 1 view .LVU41
 156              		.loc 1 78 20 is_stmt 0 view .LVU42
 157 0014 9A68     		ldr	r2, [r3, #8]
 158 0016 42F42012 		orr	r2, r2, #2621440
 159 001a 9A60     		str	r2, [r3, #8]
  79:src/main.c    ****     GPIOA->AFR[1] = (0x77 << 4);
 160              		.loc 1 79 5 is_stmt 1 view .LVU43
 161              		.loc 1 79 19 is_stmt 0 view .LVU44
 162 001c 4FF4EE62 		mov	r2, #1904
 163 0020 5A62     		str	r2, [r3, #36]
  80:src/main.c    **** }
 164              		.loc 1 80 1 view .LVU45
 165 0022 7047     		bx	lr
 166              	.L9:
 167              		.align	2
 168              	.L8:
 169 0024 00380240 		.word	1073887232
 170 0028 00000240 		.word	1073872896
 171              		.cfi_endproc
 172              	.LFE2:
 174              		.section	.text.timerConfig,"ax",%progbits
 175              		.align	1
 176              		.global	timerConfig
 177              		.syntax unified
 178              		.thumb
 179              		.thumb_func
 180              		.fpu fpv4-sp-d16
 182              	timerConfig:
 183              	.LFB3:
  81:src/main.c    **** 
  82:src/main.c    **** void timerConfig()
  83:src/main.c    **** {
 184              		.loc 1 83 1 is_stmt 1 view -0
 185              		.cfi_startproc
 186              		@ args = 0, pretend = 0, frame = 0
 187              		@ frame_needed = 0, uses_anonymous_args = 0
 188              		@ link register save eliminated.
  84:src/main.c    ****     RCC->APB2ENR |= TIM11_EN;                                               // Enable Timer 11
 189              		.loc 1 84 5 view .LVU47
 190              		.loc 1 84 18 is_stmt 0 view .LVU48
 191 0000 0A4A     		ldr	r2, .L12
 192 0002 536C     		ldr	r3, [r2, #68]
 193 0004 43F48023 		orr	r3, r3, #262144
 194 0008 5364     		str	r3, [r2, #68]
  85:src/main.c    **** 
  86:src/main.c    ****     TIM11->PSC = PSC_VALUE;                                                 // Set Prescaler value
 195              		.loc 1 86 5 is_stmt 1 view .LVU49
 196              		.loc 1 86 16 is_stmt 0 view .LVU50
 197 000a 094B     		ldr	r3, .L12+4
 198 000c 2922     		movs	r2, #41
 199 000e 9A62     		str	r2, [r3, #40]
  87:src/main.c    ****     
  88:src/main.c    ****     TIM11->ARR = ARR_VALUE;                                                 // Set Auto-reload valu
 200              		.loc 1 88 5 is_stmt 1 view .LVU51
 201              		.loc 1 88 16 is_stmt 0 view .LVU52
 202 0010 4FF6FF72 		movw	r2, #65535
ARM GAS  /tmp/cc2TGFty.s 			page 6


 203 0014 DA62     		str	r2, [r3, #44]
  89:src/main.c    **** 
  90:src/main.c    ****     TIM11->CR1 |= 0x1;                                                      // Counter enable
 204              		.loc 1 90 5 is_stmt 1 view .LVU53
 205              		.loc 1 90 16 is_stmt 0 view .LVU54
 206 0016 1A68     		ldr	r2, [r3]
 207 0018 42F00102 		orr	r2, r2, #1
 208 001c 1A60     		str	r2, [r3]
  91:src/main.c    **** 
  92:src/main.c    ****     while (!(TIM11->SR & 1));                                               // Update interrupt fla
 209              		.loc 1 92 5 is_stmt 1 view .LVU55
 210              	.L11:
 211              		.loc 1 92 29 discriminator 1 view .LVU56
 212              		.loc 1 92 11 discriminator 1 view .LVU57
 213              		.loc 1 92 19 is_stmt 0 discriminator 1 view .LVU58
 214 001e 044B     		ldr	r3, .L12+4
 215 0020 1B69     		ldr	r3, [r3, #16]
 216              		.loc 1 92 11 discriminator 1 view .LVU59
 217 0022 13F0010F 		tst	r3, #1
 218 0026 FAD0     		beq	.L11
  93:src/main.c    **** }
 219              		.loc 1 93 1 view .LVU60
 220 0028 7047     		bx	lr
 221              	.L13:
 222 002a 00BF     		.align	2
 223              	.L12:
 224 002c 00380240 		.word	1073887232
 225 0030 00480140 		.word	1073825792
 226              		.cfi_endproc
 227              	.LFE3:
 229              		.section	.text.Delay_us,"ax",%progbits
 230              		.align	1
 231              		.global	Delay_us
 232              		.syntax unified
 233              		.thumb
 234              		.thumb_func
 235              		.fpu fpv4-sp-d16
 237              	Delay_us:
 238              	.LVL0:
 239              	.LFB4:
  94:src/main.c    **** 
  95:src/main.c    **** void Delay_us(uint16_t us)
  96:src/main.c    **** {
 240              		.loc 1 96 1 is_stmt 1 view -0
 241              		.cfi_startproc
 242              		@ args = 0, pretend = 0, frame = 0
 243              		@ frame_needed = 0, uses_anonymous_args = 0
 244              		@ link register save eliminated.
  97:src/main.c    ****     TIM11->CNT = 0;                                                         // reset counter value
 245              		.loc 1 97 5 view .LVU62
 246              		.loc 1 97 16 is_stmt 0 view .LVU63
 247 0000 034B     		ldr	r3, .L16
 248 0002 0022     		movs	r2, #0
 249 0004 5A62     		str	r2, [r3, #36]
  98:src/main.c    ****     while (TIM11->CNT < us);
 250              		.loc 1 98 5 is_stmt 1 view .LVU64
 251              	.L15:
ARM GAS  /tmp/cc2TGFty.s 			page 7


 252              		.loc 1 98 28 discriminator 1 view .LVU65
 253              		.loc 1 98 11 discriminator 1 view .LVU66
 254              		.loc 1 98 17 is_stmt 0 discriminator 1 view .LVU67
 255 0006 024B     		ldr	r3, .L16
 256 0008 5B6A     		ldr	r3, [r3, #36]
 257              		.loc 1 98 11 discriminator 1 view .LVU68
 258 000a 8342     		cmp	r3, r0
 259 000c FBD3     		bcc	.L15
  99:src/main.c    **** }
 260              		.loc 1 99 1 view .LVU69
 261 000e 7047     		bx	lr
 262              	.L17:
 263              		.align	2
 264              	.L16:
 265 0010 00480140 		.word	1073825792
 266              		.cfi_endproc
 267              	.LFE4:
 269              		.section	.text.Delay_ms,"ax",%progbits
 270              		.align	1
 271              		.global	Delay_ms
 272              		.syntax unified
 273              		.thumb
 274              		.thumb_func
 275              		.fpu fpv4-sp-d16
 277              	Delay_ms:
 278              	.LVL1:
 279              	.LFB5:
 100:src/main.c    **** 
 101:src/main.c    **** void Delay_ms(uint16_t ms)
 102:src/main.c    **** {
 280              		.loc 1 102 1 is_stmt 1 view -0
 281              		.cfi_startproc
 282              		@ args = 0, pretend = 0, frame = 0
 283              		@ frame_needed = 0, uses_anonymous_args = 0
 284              		.loc 1 102 1 is_stmt 0 view .LVU71
 285 0000 38B5     		push	{r3, r4, r5, lr}
 286              	.LCFI0:
 287              		.cfi_def_cfa_offset 16
 288              		.cfi_offset 3, -16
 289              		.cfi_offset 4, -12
 290              		.cfi_offset 5, -8
 291              		.cfi_offset 14, -4
 292 0002 0546     		mov	r5, r0
 103:src/main.c    ****     for (uint16_t i=0; i<ms; i++)
 293              		.loc 1 103 5 is_stmt 1 view .LVU72
 294              	.LBB2:
 295              		.loc 1 103 10 view .LVU73
 296              	.LVL2:
 297              		.loc 1 103 19 is_stmt 0 view .LVU74
 298 0004 0024     		movs	r4, #0
 299              		.loc 1 103 5 view .LVU75
 300 0006 05E0     		b	.L19
 301              	.LVL3:
 302              	.L20:
 104:src/main.c    ****     {
 105:src/main.c    ****         Delay_us(1000);                                                    // for 1ms
 303              		.loc 1 105 9 is_stmt 1 discriminator 3 view .LVU76
ARM GAS  /tmp/cc2TGFty.s 			page 8


 304 0008 4FF47A70 		mov	r0, #1000
 305 000c FFF7FEFF 		bl	Delay_us
 306              	.LVL4:
 103:src/main.c    ****     for (uint16_t i=0; i<ms; i++)
 307              		.loc 1 103 30 discriminator 3 view .LVU77
 103:src/main.c    ****     for (uint16_t i=0; i<ms; i++)
 308              		.loc 1 103 31 is_stmt 0 discriminator 3 view .LVU78
 309 0010 0134     		adds	r4, r4, #1
 310              	.LVL5:
 103:src/main.c    ****     for (uint16_t i=0; i<ms; i++)
 311              		.loc 1 103 31 discriminator 3 view .LVU79
 312 0012 A4B2     		uxth	r4, r4
 313              	.LVL6:
 314              	.L19:
 103:src/main.c    ****     for (uint16_t i=0; i<ms; i++)
 315              		.loc 1 103 24 is_stmt 1 discriminator 1 view .LVU80
 103:src/main.c    ****     for (uint16_t i=0; i<ms; i++)
 316              		.loc 1 103 5 is_stmt 0 discriminator 1 view .LVU81
 317 0014 AC42     		cmp	r4, r5
 318 0016 F7D3     		bcc	.L20
 319              	.LBE2:
 106:src/main.c    ****     }
 107:src/main.c    **** }...
 320              		.loc 1 107 1 view .LVU82
 321 0018 38BD     		pop	{r3, r4, r5, pc}
 322              		.loc 1 107 1 view .LVU83
 323              		.cfi_endproc
 324              	.LFE5:
 326              		.section	.rodata.main.str1.4,"aMS",%progbits,1
 327              		.align	2
 328              	.LC1:
 329 0000 48656C6C 		.ascii	"Hello World :)\012\015\000"
 329      6F20576F 
 329      726C6420 
 329      3A290A0D 
 329      00
 330              		.section	.text.main,"ax",%progbits
 331              		.align	1
 332              		.global	main
 333              		.syntax unified
 334              		.thumb
 335              		.thumb_func
 336              		.fpu fpv4-sp-d16
 338              	main:
 339              	.LFB0:
  24:src/main.c    **** {
 340              		.loc 1 24 1 is_stmt 1 view -0
 341              		.cfi_startproc
 342              		@ args = 0, pretend = 0, frame = 16
 343              		@ frame_needed = 0, uses_anonymous_args = 0
 344 0000 10B5     		push	{r4, lr}
 345              	.LCFI1:
 346              		.cfi_def_cfa_offset 8
 347              		.cfi_offset 4, -8
 348              		.cfi_offset 14, -4
 349 0002 84B0     		sub	sp, sp, #16
 350              	.LCFI2:
ARM GAS  /tmp/cc2TGFty.s 			page 9


 351              		.cfi_def_cfa_offset 24
  25:src/main.c    ****     SysClockConfig_42Mhz();
 352              		.loc 1 25 5 view .LVU85
 353 0004 FFF7FEFF 		bl	SysClockConfig_42Mhz
 354              	.LVL7:
  26:src/main.c    ****     GPIOconfig();
 355              		.loc 1 26 5 view .LVU86
 356 0008 FFF7FEFF 		bl	GPIOconfig
 357              	.LVL8:
  27:src/main.c    ****     timerConfig();
 358              		.loc 1 27 5 view .LVU87
 359 000c FFF7FEFF 		bl	timerConfig
 360              	.LVL9:
  29:src/main.c    ****     UART_Typedef UART1_config = {
 361              		.loc 1 29 5 view .LVU88
  29:src/main.c    ****     UART_Typedef UART1_config = {
 362              		.loc 1 29 18 is_stmt 0 view .LVU89
 363 0010 0B4A     		ldr	r2, .L28
 364 0012 01AB     		add	r3, sp, #4
 365 0014 07CA     		ldm	r2, {r0, r1, r2}
 366 0016 83E80700 		stm	r3, {r0, r1, r2}
  37:src/main.c    ****     UART_init(USART1_BASE_ADDR, &UART1_config);
 367              		.loc 1 37 5 is_stmt 1 view .LVU90
 368 001a 1946     		mov	r1, r3
 369 001c 0948     		ldr	r0, .L28+4
 370 001e FFF7FEFF 		bl	UART_init
 371              	.LVL10:
 372 0022 03E0     		b	.L25
 373              	.LVL11:
 374              	.L27:
 375              	.LBB3:
  48:src/main.c    ****         Delay_ms(1000);      // 1sec delay
 376              		.loc 1 48 9 view .LVU91
 377 0024 4FF47A70 		mov	r0, #1000
 378 0028 FFF7FEFF 		bl	Delay_ms
 379              	.LVL12:
 380              	.LBE3:
  40:src/main.c    ****     while (1)
 381              		.loc 1 40 11 view .LVU92
 382              	.L25:
  40:src/main.c    ****     while (1)
 383              		.loc 1 40 5 view .LVU93
 384              	.LBB4:
  42:src/main.c    ****         char* s = "Hello World :)\n\r";
 385              		.loc 1 42 9 view .LVU94
  43:src/main.c    ****         while (*s)
 386              		.loc 1 43 9 view .LVU95
  42:src/main.c    ****         char* s = "Hello World :)\n\r";
 387              		.loc 1 42 15 is_stmt 0 view .LVU96
 388 002c 064C     		ldr	r4, .L28+8
 389              	.LVL13:
 390              	.L23:
  43:src/main.c    ****         while (*s)
 391              		.loc 1 43 15 is_stmt 1 view .LVU97
  43:src/main.c    ****         while (*s)
 392              		.loc 1 43 16 is_stmt 0 view .LVU98
 393 002e 2178     		ldrb	r1, [r4]	@ zero_extendqisi2
ARM GAS  /tmp/cc2TGFty.s 			page 10


  43:src/main.c    ****         while (*s)
 394              		.loc 1 43 15 view .LVU99
 395 0030 0029     		cmp	r1, #0
 396 0032 F7D0     		beq	.L27
  45:src/main.c    ****             UART_send(UART1, *s);
 397              		.loc 1 45 13 is_stmt 1 view .LVU100
 398 0034 0348     		ldr	r0, .L28+4
 399 0036 FFF7FEFF 		bl	UART_send
 400              	.LVL14:
  46:src/main.c    ****             s++;
 401              		.loc 1 46 13 view .LVU101
  46:src/main.c    ****             s++;
 402              		.loc 1 46 14 is_stmt 0 view .LVU102
 403 003a 0134     		adds	r4, r4, #1
 404              	.LVL15:
  46:src/main.c    ****             s++;
 405              		.loc 1 46 14 view .LVU103
 406 003c F7E7     		b	.L23
 407              	.L29:
 408 003e 00BF     		.align	2
 409              	.L28:
 410 0040 00000000 		.word	.LANCHOR0
 411 0044 00100140 		.word	1073811456
 412 0048 00000000 		.word	.LC1
 413              	.LBE4:
 414              		.cfi_endproc
 415              	.LFE0:
 417              		.section	.rodata
 418              		.align	2
 419              		.set	.LANCHOR0,. + 0
 420              	.LC0:
 421 0000 80250000 		.word	9600
 422 0004 80DE8002 		.word	42000000
 423 0008 00       		.byte	0
 424 0009 00       		.byte	0
 425 000a 00       		.byte	0
 426 000b 00       		.space	1
 427              		.text
 428              	.Letext0:
 429              		.file 2 "/usr/lib/gcc/arm-none-eabi/10.3.1/include/stdint.h"
 430              		.file 3 "inc/stm32f401.h"
 431              		.file 4 "inc/stm32f401ccu6.h"
ARM GAS  /tmp/cc2TGFty.s 			page 11


DEFINED SYMBOLS
                            *ABS*:0000000000000000 main.c
     /tmp/cc2TGFty.s:18     .text.SysClockConfig_42Mhz:0000000000000000 $t
     /tmp/cc2TGFty.s:26     .text.SysClockConfig_42Mhz:0000000000000000 SysClockConfig_42Mhz
     /tmp/cc2TGFty.s:122    .text.SysClockConfig_42Mhz:0000000000000078 $d
     /tmp/cc2TGFty.s:129    .text.GPIOconfig:0000000000000000 $t
     /tmp/cc2TGFty.s:136    .text.GPIOconfig:0000000000000000 GPIOconfig
     /tmp/cc2TGFty.s:169    .text.GPIOconfig:0000000000000024 $d
     /tmp/cc2TGFty.s:175    .text.timerConfig:0000000000000000 $t
     /tmp/cc2TGFty.s:182    .text.timerConfig:0000000000000000 timerConfig
     /tmp/cc2TGFty.s:224    .text.timerConfig:000000000000002c $d
     /tmp/cc2TGFty.s:230    .text.Delay_us:0000000000000000 $t
     /tmp/cc2TGFty.s:237    .text.Delay_us:0000000000000000 Delay_us
     /tmp/cc2TGFty.s:265    .text.Delay_us:0000000000000010 $d
     /tmp/cc2TGFty.s:270    .text.Delay_ms:0000000000000000 $t
     /tmp/cc2TGFty.s:277    .text.Delay_ms:0000000000000000 Delay_ms
     /tmp/cc2TGFty.s:327    .rodata.main.str1.4:0000000000000000 $d
     /tmp/cc2TGFty.s:331    .text.main:0000000000000000 $t
     /tmp/cc2TGFty.s:338    .text.main:0000000000000000 main
     /tmp/cc2TGFty.s:410    .text.main:0000000000000040 $d
     /tmp/cc2TGFty.s:418    .rodata:0000000000000000 $d

UNDEFINED SYMBOLS
UART_init
UART_send
