ARM GAS  /tmp/ccLojG1T.s 			page 1


   1              		.cpu cortex-m4
   2              		.eabi_attribute 27, 1
   3              		.eabi_attribute 28, 1
   4              		.eabi_attribute 20, 1
   5              		.eabi_attribute 21, 1
   6              		.eabi_attribute 23, 3
   7              		.eabi_attribute 24, 1
   8              		.eabi_attribute 25, 1
   9              		.eabi_attribute 26, 1
  10              		.eabi_attribute 30, 1
  11              		.eabi_attribute 34, 1
  12              		.eabi_attribute 18, 4
  13              		.file	"main.c"
  14              		.text
  15              	.Ltext0:
  16              		.cfi_sections	.debug_frame
  17              		.section	.text.task_1,"ax",%progbits
  18              		.align	1
  19              		.global	task_1
  20              		.arch armv7e-m
  21              		.syntax unified
  22              		.thumb
  23              		.thumb_func
  24              		.fpu fpv4-sp-d16
  26              	task_1:
  27              	.LFB138:
  28              		.file 1 "src/main.c"
   1:src/main.c    **** #include "main.h"
   2:src/main.c    **** 
   3:src/main.c    **** extern task_list* task_pointer;
   4:src/main.c    **** 
   5:src/main.c    **** void task_1(void);                      // task function prototype
   6:src/main.c    **** void task_2(void);
   7:src/main.c    **** void task_3(void);
   8:src/main.c    **** 
   9:src/main.c    **** int main()
  10:src/main.c    **** {
  11:src/main.c    ****     SystemInit();                       // Initialize system
  12:src/main.c    **** 
  13:src/main.c    ****     Log_s("Round Robin scheduler Program.\n");
  14:src/main.c    **** 
  15:src/main.c    ****     Log_s("Creating tasks...");
  16:src/main.c    ****     createTask(task_1, "Task 1");       // create task
  17:src/main.c    ****     createTask(task_2, "Task 2");
  18:src/main.c    ****     createTask(task_3, "Task 3");
  19:src/main.c    ****     Log_s("Tasks created sucessfully.\n");
  20:src/main.c    **** 
  21:src/main.c    ****     Log_s("Starting scheduler...");
  22:src/main.c    ****     start_scheduler();                  // Start scheduling the tasks
  23:src/main.c    **** 
  24:src/main.c    ****     while (1)
  25:src/main.c    ****     {
  26:src/main.c    **** 
  27:src/main.c    ****     }
  28:src/main.c    **** }
  29:src/main.c    **** 
  30:src/main.c    **** void task_1(void)                       // this function toggles Port B pin 5
ARM GAS  /tmp/ccLojG1T.s 			page 2


  31:src/main.c    **** {
  29              		.loc 1 31 1 view -0
  30              		.cfi_startproc
  31              		@ Volatile: function does not return.
  32              		@ args = 0, pretend = 0, frame = 0
  33              		@ frame_needed = 0, uses_anonymous_args = 0
  34 0000 08B5     		push	{r3, lr}
  35              	.LCFI0:
  36              		.cfi_def_cfa_offset 8
  37              		.cfi_offset 3, -8
  38              		.cfi_offset 14, -4
  39              	.L2:
  32:src/main.c    ****     while (1)
  40              		.loc 1 32 5 discriminator 1 view .LVU1
  33:src/main.c    ****     {
  34:src/main.c    ****         GPIOB->BSRR |= GPIO_BSRR_BS5;
  41              		.loc 1 34 9 discriminator 1 view .LVU2
  42              		.loc 1 34 21 is_stmt 0 discriminator 1 view .LVU3
  43 0002 094C     		ldr	r4, .L4
  44 0004 A369     		ldr	r3, [r4, #24]
  45 0006 43F02003 		orr	r3, r3, #32
  46 000a A361     		str	r3, [r4, #24]
  35:src/main.c    ****         task_delay(1000);
  47              		.loc 1 35 9 is_stmt 1 discriminator 1 view .LVU4
  48 000c 4FF47A70 		mov	r0, #1000
  49 0010 FFF7FEFF 		bl	task_delay
  50              	.LVL0:
  36:src/main.c    ****         GPIOB->BSRR |= GPIO_BSRR_BR5;
  51              		.loc 1 36 9 discriminator 1 view .LVU5
  52              		.loc 1 36 21 is_stmt 0 discriminator 1 view .LVU6
  53 0014 A369     		ldr	r3, [r4, #24]
  54 0016 43F40013 		orr	r3, r3, #2097152
  55 001a A361     		str	r3, [r4, #24]
  37:src/main.c    ****         task_delay(1000);
  56              		.loc 1 37 9 is_stmt 1 discriminator 1 view .LVU7
  57 001c 4FF47A70 		mov	r0, #1000
  58 0020 FFF7FEFF 		bl	task_delay
  59              	.LVL1:
  32:src/main.c    ****     {
  60              		.loc 1 32 11 discriminator 1 view .LVU8
  61 0024 EDE7     		b	.L2
  62              	.L5:
  63 0026 00BF     		.align	2
  64              	.L4:
  65 0028 00040240 		.word	1073873920
  66              		.cfi_endproc
  67              	.LFE138:
  69              		.section	.text.task_2,"ax",%progbits
  70              		.align	1
  71              		.global	task_2
  72              		.syntax unified
  73              		.thumb
  74              		.thumb_func
  75              		.fpu fpv4-sp-d16
  77              	task_2:
  78              	.LFB139:
  38:src/main.c    ****     }
ARM GAS  /tmp/ccLojG1T.s 			page 3


  39:src/main.c    **** }
  40:src/main.c    **** 
  41:src/main.c    **** void task_2(void)                       // this function toggles Port B pin 6
  42:src/main.c    **** {
  79              		.loc 1 42 1 view -0
  80              		.cfi_startproc
  81              		@ Volatile: function does not return.
  82              		@ args = 0, pretend = 0, frame = 0
  83              		@ frame_needed = 0, uses_anonymous_args = 0
  84 0000 08B5     		push	{r3, lr}
  85              	.LCFI1:
  86              		.cfi_def_cfa_offset 8
  87              		.cfi_offset 3, -8
  88              		.cfi_offset 14, -4
  89              	.L7:
  43:src/main.c    ****     while (1)
  90              		.loc 1 43 5 discriminator 1 view .LVU10
  44:src/main.c    ****     {
  45:src/main.c    ****         GPIOB->BSRR |= GPIO_BSRR_BS6;
  91              		.loc 1 45 9 discriminator 1 view .LVU11
  92              		.loc 1 45 21 is_stmt 0 discriminator 1 view .LVU12
  93 0002 094C     		ldr	r4, .L9
  94 0004 A369     		ldr	r3, [r4, #24]
  95 0006 43F04003 		orr	r3, r3, #64
  96 000a A361     		str	r3, [r4, #24]
  46:src/main.c    ****         task_delay(500);
  97              		.loc 1 46 9 is_stmt 1 discriminator 1 view .LVU13
  98 000c 4FF4FA70 		mov	r0, #500
  99 0010 FFF7FEFF 		bl	task_delay
 100              	.LVL2:
  47:src/main.c    ****         GPIOB->BSRR |= GPIO_BSRR_BR6;
 101              		.loc 1 47 9 discriminator 1 view .LVU14
 102              		.loc 1 47 21 is_stmt 0 discriminator 1 view .LVU15
 103 0014 A369     		ldr	r3, [r4, #24]
 104 0016 43F48003 		orr	r3, r3, #4194304
 105 001a A361     		str	r3, [r4, #24]
  48:src/main.c    ****         task_delay(500);
 106              		.loc 1 48 9 is_stmt 1 discriminator 1 view .LVU16
 107 001c 4FF4FA70 		mov	r0, #500
 108 0020 FFF7FEFF 		bl	task_delay
 109              	.LVL3:
  43:src/main.c    ****     {
 110              		.loc 1 43 11 discriminator 1 view .LVU17
 111 0024 EDE7     		b	.L7
 112              	.L10:
 113 0026 00BF     		.align	2
 114              	.L9:
 115 0028 00040240 		.word	1073873920
 116              		.cfi_endproc
 117              	.LFE139:
 119              		.section	.text.task_3,"ax",%progbits
 120              		.align	1
 121              		.global	task_3
 122              		.syntax unified
 123              		.thumb
 124              		.thumb_func
 125              		.fpu fpv4-sp-d16
ARM GAS  /tmp/ccLojG1T.s 			page 4


 127              	task_3:
 128              	.LFB140:
  49:src/main.c    ****     }
  50:src/main.c    **** }
  51:src/main.c    **** 
  52:src/main.c    **** void task_3(void)                       // this function toggles Port B pin 7
  53:src/main.c    **** {
 129              		.loc 1 53 1 view -0
 130              		.cfi_startproc
 131              		@ Volatile: function does not return.
 132              		@ args = 0, pretend = 0, frame = 0
 133              		@ frame_needed = 0, uses_anonymous_args = 0
 134 0000 08B5     		push	{r3, lr}
 135              	.LCFI2:
 136              		.cfi_def_cfa_offset 8
 137              		.cfi_offset 3, -8
 138              		.cfi_offset 14, -4
 139              	.L12:
  54:src/main.c    ****     while (1)
 140              		.loc 1 54 5 discriminator 1 view .LVU19
  55:src/main.c    ****     {
  56:src/main.c    ****         GPIOB->BSRR |= GPIO_BSRR_BS7;
 141              		.loc 1 56 9 discriminator 1 view .LVU20
 142              		.loc 1 56 21 is_stmt 0 discriminator 1 view .LVU21
 143 0002 094C     		ldr	r4, .L14
 144 0004 A369     		ldr	r3, [r4, #24]
 145 0006 43F08003 		orr	r3, r3, #128
 146 000a A361     		str	r3, [r4, #24]
  57:src/main.c    ****         task_delay(1000);
 147              		.loc 1 57 9 is_stmt 1 discriminator 1 view .LVU22
 148 000c 4FF47A70 		mov	r0, #1000
 149 0010 FFF7FEFF 		bl	task_delay
 150              	.LVL4:
  58:src/main.c    ****         GPIOB->BSRR |= GPIO_BSRR_BR7;
 151              		.loc 1 58 9 discriminator 1 view .LVU23
 152              		.loc 1 58 21 is_stmt 0 discriminator 1 view .LVU24
 153 0014 A369     		ldr	r3, [r4, #24]
 154 0016 43F40003 		orr	r3, r3, #8388608
 155 001a A361     		str	r3, [r4, #24]
  59:src/main.c    ****         task_delay(1000);
 156              		.loc 1 59 9 is_stmt 1 discriminator 1 view .LVU25
 157 001c 4FF47A70 		mov	r0, #1000
 158 0020 FFF7FEFF 		bl	task_delay
 159              	.LVL5:
  54:src/main.c    ****     {
 160              		.loc 1 54 11 discriminator 1 view .LVU26
 161 0024 EDE7     		b	.L12
 162              	.L15:
 163 0026 00BF     		.align	2
 164              	.L14:
 165 0028 00040240 		.word	1073873920
 166              		.cfi_endproc
 167              	.LFE140:
 169              		.section	.rodata.main.str1.4,"aMS",%progbits,1
 170              		.align	2
 171              	.LC0:
 172 0000 526F756E 		.ascii	"Round Robin scheduler Program.\012\000"
ARM GAS  /tmp/ccLojG1T.s 			page 5


 172      6420526F 
 172      62696E20 
 172      73636865 
 172      64756C65 
 173              		.align	2
 174              	.LC1:
 175 0020 43726561 		.ascii	"Creating tasks...\000"
 175      74696E67 
 175      20746173 
 175      6B732E2E 
 175      2E00
 176 0032 0000     		.align	2
 177              	.LC2:
 178 0034 5461736B 		.ascii	"Task 1\000"
 178      203100
 179 003b 00       		.align	2
 180              	.LC3:
 181 003c 5461736B 		.ascii	"Task 2\000"
 181      203200
 182 0043 00       		.align	2
 183              	.LC4:
 184 0044 5461736B 		.ascii	"Task 3\000"
 184      203300
 185 004b 00       		.align	2
 186              	.LC5:
 187 004c 5461736B 		.ascii	"Tasks created sucessfully.\012\000"
 187      73206372 
 187      65617465 
 187      64207375 
 187      63657373 
 188              		.align	2
 189              	.LC6:
 190 0068 53746172 		.ascii	"Starting scheduler...\000"
 190      74696E67 
 190      20736368 
 190      6564756C 
 190      65722E2E 
 191              		.section	.text.main,"ax",%progbits
 192              		.align	1
 193              		.global	main
 194              		.syntax unified
 195              		.thumb
 196              		.thumb_func
 197              		.fpu fpv4-sp-d16
 199              	main:
 200              	.LFB137:
  10:src/main.c    ****     SystemInit();                       // Initialize system
 201              		.loc 1 10 1 view -0
 202              		.cfi_startproc
 203              		@ Volatile: function does not return.
 204              		@ args = 0, pretend = 0, frame = 0
 205              		@ frame_needed = 0, uses_anonymous_args = 0
 206 0000 08B5     		push	{r3, lr}
 207              	.LCFI3:
 208              		.cfi_def_cfa_offset 8
 209              		.cfi_offset 3, -8
 210              		.cfi_offset 14, -4
ARM GAS  /tmp/ccLojG1T.s 			page 6


  11:src/main.c    **** 
 211              		.loc 1 11 5 view .LVU28
 212 0002 FFF7FEFF 		bl	SystemInit
 213              	.LVL6:
  13:src/main.c    **** 
 214              		.loc 1 13 5 view .LVU29
 215 0006 0D48     		ldr	r0, .L19
 216 0008 FFF7FEFF 		bl	Log_s
 217              	.LVL7:
  15:src/main.c    ****     createTask(task_1, "Task 1");       // create task
 218              		.loc 1 15 5 view .LVU30
 219 000c 0C48     		ldr	r0, .L19+4
 220 000e FFF7FEFF 		bl	Log_s
 221              	.LVL8:
  16:src/main.c    ****     createTask(task_2, "Task 2");
 222              		.loc 1 16 5 view .LVU31
 223 0012 0C49     		ldr	r1, .L19+8
 224 0014 0C48     		ldr	r0, .L19+12
 225 0016 FFF7FEFF 		bl	createTask
 226              	.LVL9:
  17:src/main.c    ****     createTask(task_3, "Task 3");
 227              		.loc 1 17 5 view .LVU32
 228 001a 0C49     		ldr	r1, .L19+16
 229 001c 0C48     		ldr	r0, .L19+20
 230 001e FFF7FEFF 		bl	createTask
 231              	.LVL10:
  18:src/main.c    ****     Log_s("Tasks created sucessfully.\n");
 232              		.loc 1 18 5 view .LVU33
 233 0022 0C49     		ldr	r1, .L19+24
 234 0024 0C48     		ldr	r0, .L19+28
 235 0026 FFF7FEFF 		bl	createTask
 236              	.LVL11:
  19:src/main.c    **** 
 237              		.loc 1 19 5 view .LVU34
 238 002a 0C48     		ldr	r0, .L19+32
 239 002c FFF7FEFF 		bl	Log_s
 240              	.LVL12:
  21:src/main.c    ****     start_scheduler();                  // Start scheduling the tasks
 241              		.loc 1 21 5 view .LVU35
 242 0030 0B48     		ldr	r0, .L19+36
 243 0032 FFF7FEFF 		bl	Log_s
 244              	.LVL13:
  22:src/main.c    **** 
 245              		.loc 1 22 5 view .LVU36
 246 0036 FFF7FEFF 		bl	start_scheduler
 247              	.LVL14:
 248              	.L17:
  24:src/main.c    ****     {
 249              		.loc 1 24 5 discriminator 1 view .LVU37
  27:src/main.c    **** }
 250              		.loc 1 27 5 discriminator 1 view .LVU38
  24:src/main.c    ****     {
 251              		.loc 1 24 11 discriminator 1 view .LVU39
 252 003a FEE7     		b	.L17
 253              	.L20:
 254              		.align	2
 255              	.L19:
ARM GAS  /tmp/ccLojG1T.s 			page 7


 256 003c 00000000 		.word	.LC0
 257 0040 20000000 		.word	.LC1
 258 0044 34000000 		.word	.LC2
 259 0048 00000000 		.word	task_1
 260 004c 3C000000 		.word	.LC3
 261 0050 00000000 		.word	task_2
 262 0054 44000000 		.word	.LC4
 263 0058 00000000 		.word	task_3
 264 005c 4C000000 		.word	.LC5
 265 0060 68000000 		.word	.LC6
 266              		.cfi_endproc
 267              	.LFE137:
 269              		.text
 270              	.Letext0:
 271              		.file 2 "/usr/include/newlib/machine/_default_types.h"
 272              		.file 3 "/usr/include/newlib/sys/_stdint.h"
 273              		.file 4 "driver/Device/stm32f401xc.h"
 274              		.file 5 "inc/scheduler.h"
 275              		.file 6 "inc/main.h"
 276              		.file 7 "inc/Log.h"
 277              		.file 8 "inc/task.h"
ARM GAS  /tmp/ccLojG1T.s 			page 8


DEFINED SYMBOLS
                            *ABS*:0000000000000000 main.c
     /tmp/ccLojG1T.s:18     .text.task_1:0000000000000000 $t
     /tmp/ccLojG1T.s:26     .text.task_1:0000000000000000 task_1
     /tmp/ccLojG1T.s:65     .text.task_1:0000000000000028 $d
     /tmp/ccLojG1T.s:70     .text.task_2:0000000000000000 $t
     /tmp/ccLojG1T.s:77     .text.task_2:0000000000000000 task_2
     /tmp/ccLojG1T.s:115    .text.task_2:0000000000000028 $d
     /tmp/ccLojG1T.s:120    .text.task_3:0000000000000000 $t
     /tmp/ccLojG1T.s:127    .text.task_3:0000000000000000 task_3
     /tmp/ccLojG1T.s:165    .text.task_3:0000000000000028 $d
     /tmp/ccLojG1T.s:170    .rodata.main.str1.4:0000000000000000 $d
     /tmp/ccLojG1T.s:192    .text.main:0000000000000000 $t
     /tmp/ccLojG1T.s:199    .text.main:0000000000000000 main
     /tmp/ccLojG1T.s:256    .text.main:000000000000003c $d

UNDEFINED SYMBOLS
task_delay
SystemInit
Log_s
createTask
start_scheduler
